target datalayout = "e-m:e-p270:32:32-p271:32:32-p272:64:64-i64:64-i128:128-f80:128-n8:16:32:64-S128"
target triple = "x86_64-pc-linux-gnu"

%struct.archive_rb_tree = type { ptr, ptr }
%struct.isoent = type { %struct.archive_rb_node, ptr, ptr, %struct.anon.3, %struct.archive_rb_tree, %struct.anon.4, ptr, ptr, ptr, ptr, i32, %struct.anon.5, i32, i32, ptr, i32, i32, i32, i32, ptr, ptr, %struct.anon.6, i8 }
%struct.archive_rb_node = type { [2 x ptr], i64 }
%struct.anon.3 = type { ptr, ptr, i32 }
%struct.anon.4 = type { ptr, ptr, i32 }
%struct.anon.5 = type { i32, i32, i32, i32 }
%struct.anon.6 = type { ptr, ptr, ptr }
%struct.extr_rec = type { i32, i32, [2048 x i8], ptr }

; Function Attrs: nounwind uwtable
define internal void @_isoent_free(ptr noundef %0) #0 {
  %2 = alloca ptr, align 8
  %3 = alloca ptr, align 8
  %4 = alloca ptr, align 8
  store ptr %0, ptr %2, align 8, !tbaa !141
  call void @llvm.lifetime.start.p0(i64 8, ptr %3) #13
  call void @llvm.lifetime.start.p0(i64 8, ptr %4) #13
  %5 = load ptr, ptr %2, align 8, !tbaa !141
  %6 = getelementptr inbounds nuw %struct.isoent, ptr %5, i32 0, i32 6
  %7 = load ptr, ptr %6, align 8, !tbaa !236
  call void @free(ptr noundef %7) #13
  %8 = load ptr, ptr %2, align 8, !tbaa !141
  %9 = getelementptr inbounds nuw %struct.isoent, ptr %8, i32 0, i32 14
  %10 = load ptr, ptr %9, align 8, !tbaa !237
  call void @free(ptr noundef %10) #13
  %11 = load ptr, ptr %2, align 8, !tbaa !141
  %12 = getelementptr inbounds nuw %struct.isoent, ptr %11, i32 0, i32 21
  %13 = getelementptr inbounds nuw %struct.anon.6, ptr %12, i32 0, i32 0
  %14 = load ptr, ptr %13, align 8, !tbaa !208
  store ptr %14, ptr %3, align 8, !tbaa !238
  br label %15

15:                                               ; preds = %18, %1
  %16 = load ptr, ptr %3, align 8, !tbaa !238
  %17 = icmp ne ptr %16, null
  br i1 %17, label %18, label %24

18:                                               ; preds = %15
  %19 = load ptr, ptr %3, align 8, !tbaa !238
  %20 = getelementptr inbounds nuw %struct.extr_rec, ptr %19, i32 0, i32 3
  %21 = load ptr, ptr %20, align 8, !tbaa !239
  store ptr %21, ptr %4, align 8, !tbaa !238
  %22 = load ptr, ptr %3, align 8, !tbaa !238
  call void @free(ptr noundef %22) #13
  %23 = load ptr, ptr %4, align 8, !tbaa !238
  store ptr %23, ptr %3, align 8, !tbaa !238
  br label %15, !llvm.loop !241

24:                                               ; preds = %15
  %25 = load ptr, ptr %2, align 8, !tbaa !141
  call void @free(ptr noundef %25) #13
  call void @llvm.lifetime.end.p0(i64 8, ptr %4) #13
  call void @llvm.lifetime.end.p0(i64 8, ptr %3) #13
  ret void
}

; Function Attrs: nounwind uwtable
define internal void @isoent_free_all(ptr noundef %0) #0 {
  %2 = alloca ptr, align 8
  %3 = alloca ptr, align 8
  %4 = alloca ptr, align 8
  %5 = alloca i32, align 4
  store ptr %0, ptr %2, align 8, !tbaa !141
  call void @llvm.lifetime.start.p0(i64 8, ptr %3) #13
  call void @llvm.lifetime.start.p0(i64 8, ptr %4) #13
  %6 = load ptr, ptr %2, align 8, !tbaa !141
  %7 = icmp eq ptr %6, null
  br i1 %7, label %8, label %9

8:                                                ; preds = %1
  store i32 1, ptr %5, align 4
  br label %55

9:                                                ; preds = %1
  %10 = load ptr, ptr %2, align 8, !tbaa !141
  store ptr %10, ptr %3, align 8, !tbaa !141
  br label %11

11:                                               ; preds = %54, %25, %9
  %12 = load ptr, ptr %3, align 8, !tbaa !141
  %13 = getelementptr inbounds nuw %struct.isoent, ptr %12, i32 0, i32 22
  %14 = load i8, ptr %13, align 8
  %15 = lshr i8 %14, 1
  %16 = and i8 %15, 1
  %17 = zext i8 %16 to i32
  %18 = icmp ne i32 %17, 0
  br i1 %18, label %19, label %31

19:                                               ; preds = %11
  %20 = load ptr, ptr %3, align 8, !tbaa !141
  %21 = getelementptr inbounds nuw %struct.isoent, ptr %20, i32 0, i32 3
  %22 = getelementptr inbounds nuw %struct.anon.3, ptr %21, i32 0, i32 0
  %23 = load ptr, ptr %22, align 8, !tbaa !204
  %24 = icmp ne ptr %23, null
  br i1 %24, label %25, label %30

25:                                               ; preds = %19
  %26 = load ptr, ptr %3, align 8, !tbaa !141
  %27 = getelementptr inbounds nuw %struct.isoent, ptr %26, i32 0, i32 3
  %28 = getelementptr inbounds nuw %struct.anon.3, ptr %27, i32 0, i32 0
  %29 = load ptr, ptr %28, align 8, !tbaa !204
  store ptr %29, ptr %3, align 8, !tbaa !141
  br label %11

30:                                               ; preds = %19
  br label %31

31:                                               ; preds = %30, %11
  br label %32

32:                                               ; preds = %53, %31
  %33 = load ptr, ptr %3, align 8, !tbaa !141
  store ptr %33, ptr %4, align 8, !tbaa !141
  %34 = load ptr, ptr %3, align 8, !tbaa !141
  %35 = getelementptr inbounds nuw %struct.isoent, ptr %34, i32 0, i32 7
  %36 = load ptr, ptr %35, align 8, !tbaa !232
  %37 = icmp eq ptr %36, null
  br i1 %37, label %38, label %48

38:                                               ; preds = %32
  %39 = load ptr, ptr %3, align 8, !tbaa !141
  %40 = getelementptr inbounds nuw %struct.isoent, ptr %39, i32 0, i32 2
  %41 = load ptr, ptr %40, align 8, !tbaa !104
  store ptr %41, ptr %3, align 8, !tbaa !141
  %42 = load ptr, ptr %4, align 8, !tbaa !141
  call void @_isoent_free(ptr noundef %42)
  %43 = load ptr, ptr %3, align 8, !tbaa !141
  %44 = load ptr, ptr %4, align 8, !tbaa !141
  %45 = icmp eq ptr %43, %44
  br i1 %45, label %46, label %47

46:                                               ; preds = %38
  store i32 1, ptr %5, align 4
  br label %55

47:                                               ; preds = %38
  br label %53

48:                                               ; preds = %32
  %49 = load ptr, ptr %3, align 8, !tbaa !141
  %50 = getelementptr inbounds nuw %struct.isoent, ptr %49, i32 0, i32 7
  %51 = load ptr, ptr %50, align 8, !tbaa !232
  store ptr %51, ptr %3, align 8, !tbaa !141
  %52 = load ptr, ptr %4, align 8, !tbaa !141
  call void @_isoent_free(ptr noundef %52)
  br label %54

53:                                               ; preds = %47
  br label %32

54:                                               ; preds = %48
  br label %11

55:                                               ; preds = %46, %8
  call void @llvm.lifetime.end.p0(i64 8, ptr %4) #13
  call void @llvm.lifetime.end.p0(i64 8, ptr %3) #13
  ret void
}