; Function Attrs: nounwind uwtable
define internal fastcc void @isoent_free_all(ptr noundef %0) unnamed_addr #0 {
  %2 = icmp eq ptr %0, null
  br i1 %2, label %.loopexit, label %.preheader

.preheader:                                       ; preds = %1, %.preheader.backedge
  %.0 = phi ptr [ %.0.be, %.preheader.backedge ], [ %0, %1 ]
  %3 = getelementptr inbounds nuw i8, ptr %.0, i64 232
  %4 = load i8, ptr %3, align 8
  %5 = and i8 %4, 2
  %.not = icmp eq i8 %5, 0
  br i1 %.not, label %.preheader31, label %6

6:                                                ; preds = %.preheader
  %7 = getelementptr inbounds nuw i8, ptr %.0, i64 40
  %8 = load ptr, ptr %7, align 8, !tbaa !154
  %.not17 = icmp eq ptr %8, null
  br i1 %.not17, label %.preheader31, label %.preheader.backedge

.preheader31:                                     ; preds = %6, %.preheader
  br label %9

9:                                                ; preds = %.preheader31, %_isoent_free.exit
  %.1 = phi ptr [ %15, %_isoent_free.exit ], [ %.0, %.preheader31 ]
  %10 = getelementptr inbounds nuw i8, ptr %.1, i64 112
  %11 = load ptr, ptr %10, align 8, !tbaa !150
  %12 = icmp eq ptr %11, null
  br i1 %12, label %13, label %25

13:                                               ; preds = %9
  %14 = getelementptr inbounds nuw i8, ptr %.1, i64 32
  %15 = load ptr, ptr %14, align 8, !tbaa !57
  %16 = getelementptr inbounds nuw i8, ptr %.1, i64 104
  %17 = load ptr, ptr %16, align 8, !tbaa !206
  tail call void @free(ptr noundef %17) #23
  %18 = getelementptr inbounds nuw i8, ptr %.1, i64 168
  %19 = load ptr, ptr %18, align 8, !tbaa !188
  tail call void @free(ptr noundef %19) #23
  %20 = getelementptr inbounds nuw i8, ptr %.1, i64 208
  %21 = load ptr, ptr %20, align 8, !tbaa !95
  %.not8.i = icmp eq ptr %21, null
  br i1 %.not8.i, label %_isoent_free.exit, label %.lr.ph.i

.lr.ph.i:                                         ; preds = %13, %.lr.ph.i
  %.09.i = phi ptr [ %23, %.lr.ph.i ], [ %21, %13 ]
  %22 = getelementptr inbounds nuw i8, ptr %.09.i, i64 2056
  %23 = load ptr, ptr %22, align 8, !tbaa !238
  tail call void @free(ptr noundef nonnull %.09.i) #23
  %.not.i = icmp eq ptr %23, null
  br i1 %.not.i, label %_isoent_free.exit, label %.lr.ph.i, !llvm.loop !240

_isoent_free.exit:                                ; preds = %.lr.ph.i, %13
  tail call void @free(ptr noundef %.1) #23
  %24 = icmp eq ptr %15, %.1
  br i1 %24, label %.loopexit, label %9

25:                                               ; preds = %9
  %26 = getelementptr inbounds nuw i8, ptr %.1, i64 104
  %27 = load ptr, ptr %26, align 8, !tbaa !206
  tail call void @free(ptr noundef %27) #23
  %28 = getelementptr inbounds nuw i8, ptr %.1, i64 168
  %29 = load ptr, ptr %28, align 8, !tbaa !188
  tail call void @free(ptr noundef %29) #23
  %30 = getelementptr inbounds nuw i8, ptr %.1, i64 208
  %31 = load ptr, ptr %30, align 8, !tbaa !95
  %.not8.i18 = icmp eq ptr %31, null
  br i1 %.not8.i18, label %_isoent_free.exit22, label %.lr.ph.i19

.lr.ph.i19:                                       ; preds = %25, %.lr.ph.i19
  %.09.i20 = phi ptr [ %33, %.lr.ph.i19 ], [ %31, %25 ]
  %32 = getelementptr inbounds nuw i8, ptr %.09.i20, i64 2056
  %33 = load ptr, ptr %32, align 8, !tbaa !238
  tail call void @free(ptr noundef nonnull %.09.i20) #23
  %.not.i21 = icmp eq ptr %33, null
  br i1 %.not.i21, label %_isoent_free.exit22, label %.lr.ph.i19, !llvm.loop !240

_isoent_free.exit22:                              ; preds = %.lr.ph.i19, %25
  tail call void @free(ptr noundef %.1) #23
  br label %.preheader.backedge

.preheader.backedge:                              ; preds = %_isoent_free.exit22, %6
  %.0.be = phi ptr [ %11, %_isoent_free.exit22 ], [ %8, %6 ]
  br label %.preheader

.loopexit:                                        ; preds = %_isoent_free.exit, %1
  ret void
}